Certificate:
    Data:
        Version: 3 (0x2)
        Serial Number:
            6c:55:ab:db:d0:07:92:c7:9d:07:0c:d8:11:9e:d6:bf
        Signature Algorithm: sha384WithRSAEncryption
        Issuer: C = US, ST = New Jersey, L = Jersey City, O = The USERTRUST Network, CN = USERTrust RSA Certification Authority
        Validity
            Not Before: Jan 30 00:00:00 2020 GMT
            Not After : Jan 29 23:59:59 2030 GMT
        Subject: C = AT, O = ZeroSSL, CN = ZeroSSL RSA Domain Secure Site CA
        Subject Public Key Info:
            Public Key Algorithm: rsaEncryption
                RSA Public-Key: (4096 bit)
                Modulus:
                    00:86:69:73:7e:a3:b5:31:d8:23:e1:6d:dd:a4:13:
                    d3:54:15:f5:02:eb:dc:03:21:b5:7e:5d:1d:52:7c:
                    3f:31:eb:9e:09:6c:d1:59:38:5e:67:7e:4b:56:8f:
                    75:90:b2:37:0c:35:5a:64:a5:be:4c:10:2c:24:18:
                    c4:6d:89:8c:c1:c5:92:4d:66:02:83:9d:f7:e1:21:
                    74:f9:cb:43:02:c1:71:b1:7f:ab:4c:38:7d:91:2a:
                    c6:ff:89:a9:e8:e4:a1:b9:b2:da:10:85:09:89:9a:
                    38:b7:ce:f7:4e:e4:9d:d1:68:f9:0d:6b:77:0e:da:
                    40:1b:c4:f7:e6:5f:ef:fb:1a:cd:f2:e6:fc:3d:24:
                    a8:5f:95:64:83:0f:a3:59:fe:0a:42:d3:6f:50:52:
                    c3:ab:c9:85:5a:15:27:3c:be:a3:1c:00:03:5e:9b:
                    ec:e2:54:cd:63:03:ad:c7:dc:90:b5:ba:71:c1:2b:
                    7b:40:96:35:f8:80:ab:99:12:41:e8:1b:8a:46:df:
                    e3:7c:32:45:f4:9b:1c:45:05:65:1c:8c:50:74:a0:
                    09:97:ba:1a:56:75:e0:0e:4a:ad:93:6a:9d:75:dd:
                    e4:08:35:dd:ef:88:2f:f3:5d:c6:f7:5c:fb:0a:3b:
                    06:c8:9f:77:a0:92:25:35:2d:d4:80:56:c3:e9:5e:
                    78:24:c8:19:de:b4:a6:a2:d6:1b:cf:df:28:67:15:
                    fb:30:a6:ed:0a:6d:5a:27:fa:be:85:3b:f6:60:ad:
                    72:33:1a:e7:7d:c8:9e:2a:63:98:05:b1:43:86:75:
                    b9:3b:a4:4c:03:bd:37:74:12:bd:da:3e:97:44:dd:
                    84:b6:d2:e4:42:eb:a3:66:0c:be:8d:74:4a:b5:a5:
                    8c:22:59:0d:91:62:66:3a:21:e6:12:b4:27:80:7b:
                    ed:88:d9:08:72:32:6e:9a:ad:5d:74:55:f8:89:a4:
                    c8:e3:46:ba:ce:0b:c8:06:dc:45:78:3b:36:45:f7:
                    1a:1f:bd:de:af:b7:2d:35:45:2a:81:04:f9:ac:58:
                    09:84:c9:85:c7:be:ab:42:00:79:39:95:24:a1:d6:
                    f9:93:67:b1:ec:ff:86:bb:82:7c:e9:b4:b5:e7:4f:
                    78:52:e6:1c:57:4f:61:55:e9:27:99:38:79:13:1f:
                    42:04:a8:a9:2d:2d:96:db:02:81:6a:47:fe:69:56:
                    27:34:25:3a:4b:49:c0:4a:ab:76:c6:b6:69:18:2d:
                    6f:ee:fe:83:86:e7:a9:cb:22:6d:9f:7a:92:57:63:
                    e8:06:25:39:4a:a9:7e:68:04:69:c1:48:9b:40:c1:
                    a6:e3:88:23:c8:d0:ea:0e:55:69:f9:28:4b:42:55:
                    07:f7:1f
                Exponent: 65537 (0x10001)
        X509v3 extensions:
            X509v3 Authority Key Identifier: 
                keyid:53:79:BF:5A:AA:2B:4A:CF:54:80:E1:D8:9B:C0:9D:F2:B2:03:66:CB

            X509v3 Subject Key Identifier: 
                C8:D9:78:68:A2:D9:19:68:D5:3D:72:DE:5F:0A:3E:DC:B5:86:86:A6
            X509v3 Key Usage: critical
                Digital Signature, Certificate Sign, CRL Sign
            X509v3 Basic Constraints: critical
                CA:TRUE, pathlen:0
            X509v3 Extended Key Usage: 
                TLS Web Server Authentication, TLS Web Client Authentication
            X509v3 Certificate Policies: 
                Policy: 1.3.6.1.4.1.6449.1.2.2.78
                Policy: 2.23.140.1.2.1

            X509v3 CRL Distribution Points: 

                Full Name:
                  URI:http://crl.usertrust.com/USERTrustRSACertificationAuthority.crl

            Authority Information Access: 
                CA Issuers - URI:http://crt.usertrust.com/USERTrustRSAAddTrustCA.crt
                OCSP - URI:http://ocsp.usertrust.com

    Signature Algorithm: sha384WithRSAEncryption
         15:0f:0a:08:cd:00:d5:7a:b7:13:d1:e6:2a:66:30:4d:27:c5:
         4d:5b:05:45:95:03:ad:64:44:6a:9f:98:96:9c:45:5a:2d:96:
         5d:cf:19:5b:bf:3d:85:c7:41:31:50:db:94:12:06:24:21:53:
         38:62:87:0a:90:24:3b:84:ee:67:a2:27:28:ab:f0:eb:11:81:
         f9:22:e3:5c:b9:6d:48:f0:92:59:f4:32:ee:07:57:d8:bc:81:
         e5:67:62:46:e3:a8:8d:6d:52:80:df:28:00:13:3f:3a:46:f0:
         d0:96:dd:82:e3:de:2a:a8:f5:48:b5:18:eb:cf:d6:25:24:41:
         93:d0:3a:ed:b7:20:29:ab:46:0b:14:3c:df:f9:9d:69:90:c8:
         61:ed:cf:bb:7d:77:89:aa:62:21:7c:9a:5d:b8:a7:3c:1c:44:
         24:61:04:12:85:e9:f8:db:a4:b7:1f:42:6b:20:06:ca:70:10:
         a2:c9:81:6e:3a:17:f2:be:ec:15:08:50:df:16:fa:e3:00:38:
         dd:e2:35:f5:b9:05:dd:d7:ad:48:c8:54:5b:9b:cf:6c:d8:e8:
         f9:a1:4d:70:0d:8c:f9:b3:1f:a1:a0:2b:a1:ea:54:ac:fb:fb:
         8f:b9:6a:26:22:ad:f2:d4:60:c5:35:a7:d6:f8:bb:07:05:4d:
         7a:95:0a:39:43:6c:a1:db:99:5a:42:c2:91:83:23:e6:32:91:
         c9:f7:c7:9d:9b:ac:b6:b0:75:1a:6c:04:a6:44:7c:6f:1a:2b:
         b0:c0:4d:b9:68:35:34:d9:20:1e:7a:9c:88:98:9d:82:cc:1f:
         34:60:6e:d6:c6:5c:a7:1e:a3:61:a4:4e:f1:7c:2e:cf:cd:09:
         4b:82:67:c4:1d:d5:3e:b4:71:5e:41:ac:d1:42:7a:c5:91:6d:
         96:92:a4:46:22:ae:dc:29:19:f2:ca:9b:e3:3c:c9:23:7a:25:
         7d:95:17:40:33:d7:d2:26:fb:01:de:cb:d4:ba:ed:5c:a0:81:
         b5:c7:12:35:c9:e8:28:18:ce:2b:e5:03:f8:44:62:15:bd:86:
         a2:23:be:82:d1:d8:e8:49:b4:3f:76:42:14:51:74:2e:07:c0:
         0b:e6:3c:87:df:88:37:05:96:9a:5f:2b:e9:9a:75:78:8a:5a:
         69:31:75:40:9c:06:06:38:de:75:5a:12:7a:5b:4c:4d:74:d2:
         70:cd:80:12:65:81:fe:b6:60:96:23:e3:7a:d0:6b:f6:34:d3:
         06:1f:03:19:ed:ef:5b:5e:0c:d4:09:91:f9:15:a0:45:0c:64:
         79:4b:d5:56:a8:70:7b:dd:0f:8e:c8:85:6f:21:b2:98:71:27:
         36:c3:f6:92:b8:52:86:48
-----BEGIN CERTIFICATE-----
MIIG1TCCBL2gAwIBAgIQbFWr29AHksedBwzYEZ7WvzANBgkqhkiG9w0BAQwFADCB
iDELMAkGA1UEBhMCVVMxEzARBgNVBAgTCk5ldyBKZXJzZXkxFDASBgNVBAcTC0pl
cnNleSBDaXR5MR4wHAYDVQQKExVUaGUgVVNFUlRSVVNUIE5ldHdvcmsxLjAsBgNV
BAMTJVVTRVJUcnVzdCBSU0EgQ2VydGlmaWNhdGlvbiBBdXRob3JpdHkwHhcNMjAw
MTMwMDAwMDAwWhcNMzAwMTI5MjM1OTU5WjBLMQswCQYDVQQGEwJBVDEQMA4GA1UE
ChMHWmVyb1NTTDEqMCgGA1UEAxMhWmVyb1NTTCBSU0EgRG9tYWluIFNlY3VyZSBT
aXRlIENBMIICIjANBgkqhkiG9w0BAQEFAAOCAg8AMIICCgKCAgEAhmlzfqO1Mdgj
4W3dpBPTVBX1AuvcAyG1fl0dUnw/MeueCWzRWTheZ35LVo91kLI3DDVaZKW+TBAs
JBjEbYmMwcWSTWYCg5334SF0+ctDAsFxsX+rTDh9kSrG/4mp6OShubLaEIUJiZo4
t873TuSd0Wj5DWt3DtpAG8T35l/v+xrN8ub8PSSoX5Vkgw+jWf4KQtNvUFLDq8mF
WhUnPL6jHAADXpvs4lTNYwOtx9yQtbpxwSt7QJY1+ICrmRJB6BuKRt/jfDJF9Jsc
RQVlHIxQdKAJl7oaVnXgDkqtk2qddd3kCDXd74gv813G91z7CjsGyJ93oJIlNS3U
gFbD6V54JMgZ3rSmotYbz98oZxX7MKbtCm1aJ/q+hTv2YK1yMxrnfcieKmOYBbFD
hnW5O6RMA703dBK92j6XRN2EttLkQuujZgy+jXRKtaWMIlkNkWJmOiHmErQngHvt
iNkIcjJumq1ddFX4iaTI40a6zgvIBtxFeDs2RfcaH73er7ctNUUqgQT5rFgJhMmF
x76rQgB5OZUkodb5k2ex7P+Gu4J86bS15094UuYcV09hVeknmTh5Ex9CBKipLS2W
2wKBakf+aVYnNCU6S0nASqt2xrZpGC1v7v6DhuepyyJtn3qSV2PoBiU5Sql+aARp
wUibQMGm44gjyNDqDlVp+ShLQlUH9x8CAwEAAaOCAXUwggFxMB8GA1UdIwQYMBaA
FFN5v1qqK0rPVIDh2JvAnfKyA2bLMB0GA1UdDgQWBBTI2XhootkZaNU9ct5fCj7c
tYaGpjAOBgNVHQ8BAf8EBAMCAYYwEgYDVR0TAQH/BAgwBgEB/wIBADAdBgNVHSUE
FjAUBggrBgEFBQcDAQYIKwYBBQUHAwIwIgYDVR0gBBswGTANBgsrBgEEAbIxAQIC
TjAIBgZngQwBAgEwUAYDVR0fBEkwRzBFoEOgQYY/aHR0cDovL2NybC51c2VydHJ1
c3QuY29tL1VTRVJUcnVzdFJTQUNlcnRpZmljYXRpb25BdXRob3JpdHkuY3JsMHYG
CCsGAQUFBwEBBGowaDA/BggrBgEFBQcwAoYzaHR0cDovL2NydC51c2VydHJ1c3Qu
Y29tL1VTRVJUcnVzdFJTQUFkZFRydXN0Q0EuY3J0MCUGCCsGAQUFBzABhhlodHRw
Oi8vb2NzcC51c2VydHJ1c3QuY29tMA0GCSqGSIb3DQEBDAUAA4ICAQAVDwoIzQDV
ercT0eYqZjBNJ8VNWwVFlQOtZERqn5iWnEVaLZZdzxlbvz2Fx0ExUNuUEgYkIVM4
YocKkCQ7hO5noicoq/DrEYH5IuNcuW1I8JJZ9DLuB1fYvIHlZ2JG46iNbVKA3ygA
Ez86RvDQlt2C494qqPVItRjrz9YlJEGT0DrttyApq0YLFDzf+Z1pkMhh7c+7fXeJ
qmIhfJpduKc8HEQkYQQShen426S3H0JrIAbKcBCiyYFuOhfyvuwVCFDfFvrjADjd
4jX1uQXd161IyFRbm89s2Oj5oU1wDYz5sx+hoCuh6lSs+/uPuWomIq3y1GDFNafW
+LsHBU16lQo5Q2yh25laQsKRgyPmMpHJ98edm6y2sHUabASmRHxvGiuwwE25aDU0
2SAeepyImJ2CzB80YG7WxlynHqNhpE7xfC7PzQlLgmfEHdU+tHFeQazRQnrFkW2W
kqRGIq7cKRnyypvjPMkjeiV9lRdAM9fSJvsB3svUuu1coIG1xxI1yegoGM4r5QP4
RGIVvYaiI76C0djoSbQ/dkIUUXQuB8AL5jyH34g3BZaaXyvpmnV4ilppMXVAnAYG
ON51WhJ6W0xNdNJwzYASZYH+tmCWI+N60Gv2NNMGHwMZ7e9bXgzUCZH5FaBFDGR5
S9VWqHB73Q+OyIVvIbKYcSc2w/aSuFKGSA==
-----END CERTIFICATE-----
